; Function Attrs: mustprogress uwtable
define ptr @ucnv_openU_77(ptr noundef %0, ptr noundef %1) local_unnamed_addr #0 {
  %3 = alloca [60 x i8], align 16
  call void @llvm.lifetime.start.p0(i64 60, ptr nonnull %3) #16
  %4 = icmp eq ptr %1, null
  br i1 %4, label %ucnv_open_77.exit, label %5

5:                                                ; preds = %2
  %6 = load i32, ptr %1, align 4, !tbaa !3
  %7 = icmp slt i32 %6, 1
  br i1 %7, label %8, label %ucnv_open_77.exit

8:                                                ; preds = %5
  %9 = icmp eq ptr %0, null
  br i1 %9, label %10, label %12

10:                                               ; preds = %8
  %11 = tail call ptr @ucnv_createConverter_77(ptr noundef null, ptr noundef null, ptr noundef nonnull %1)
  br label %ucnv_open_77.exit

12:                                               ; preds = %8
  %13 = tail call i32 @u_strlen_77(ptr noundef nonnull %0)
  %14 = icmp sgt i32 %13, 59
  br i1 %14, label %15, label %16

15:                                               ; preds = %12
  store i32 1, ptr %1, align 4, !tbaa !3
  br label %ucnv_open_77.exit

16:                                               ; preds = %12
  %17 = call ptr @u_austrcpy_77(ptr noundef nonnull %3, ptr noundef nonnull %0)
  %18 = load i32, ptr %1, align 4, !tbaa !3
  %19 = icmp slt i32 %18, 1
  br i1 %19, label %20, label %ucnv_open_77.exit

20:                                               ; preds = %16
  %21 = call ptr @ucnv_createConverter_77(ptr noundef null, ptr noundef %17, ptr noundef nonnull %1)
  br label %ucnv_open_77.exit

ucnv_open_77.exit:                                ; preds = %20, %16, %10, %2, %5, %15
  %.0 = phi ptr [ null, %15 ], [ null, %5 ], [ null, %2 ], [ %11, %10 ], [ %21, %20 ], [ null, %16 ]
  call void @llvm.lifetime.end.p0(i64 60, ptr nonnull %3) #16
  ret ptr %.0
}